ccopy_reg
_reconstructor
p0
(cpandas.core.frame
DataFrame
p1
c__builtin__
object
p2
Ntp3
Rp4
(dp5
S'_metadata'
p6
(lp7
sS'_typ'
p8
S'dataframe'
p9
sS'_data'
p10
g0
(cpandas.core.internals
BlockManager
p11
g2
Ntp12
Rp13
((lp14
cpandas.core.indexes.base
_new_Index
p15
(cpandas.core.indexes.base
Index
p16
(dp17
S'data'
p18
cnumpy.core.multiarray
_reconstruct
p19
(cnumpy
ndarray
p20
(I0
tp21
S'b'
p22
tp23
Rp24
(I1
(I43
tp25
cnumpy
dtype
p26
(S'O8'
p27
I0
I1
tp28
Rp29
(I3
S'|'
p30
NNNI-1
I-1
I63
tp31
bI00
(lp32
S'height_inch'
p33
aS'width_inch'
p34
aVbrightness
p35
aVratioUniqueColors
p36
aVthresholdBlackPerc
p37
aVhighbrightnessPerc
p38
aVlowbrightnessPerc
p39
aVCornerPer
p40
aVEdgePer
p41
aVFaceCount
p42
aS'area_in_inch'
p43
aS'blacks'
p44
aS'blues'
p45
aS'cyans'
p46
aS'grays'
p47
aS'greens'
p48
aS'magentas'
p49
aS'reds'
p50
aS'whites'
p51
aS'yellows'
p52
aS'is_alive_auction'
p53
aS'American'
p54
aS'Australian'
p55
aS'Austrian'
p56
aS'Belgian'
p57
aS'British'
p58
aS'Canadian'
p59
aS'Chinese'
p60
aS'Danish'
p61
aS'Dutch'
p62
aS'Finnish'
p63
aS'French'
p64
aS'German'
p65
aS'Indian'
p66
aS'Iranian'
p67
aS'Italian'
p68
aS'NewZealand'
p69
aS'Other_artist_country'
p70
aS'Russian'
p71
aS'Spanish'
p72
aS'Swedish'
p73
aS'Swiss'
p74
aS'aspect_ratio'
p75
atp76
bsS'name'
p77
Nstp78
Rp79
ag15
(cpandas.core.indexes.range
RangeIndex
p80
(dp81
S'start'
p82
I0
sS'step'
p83
I1
sS'stop'
p84
I1
sg77
Nstp85
Rp86
a(lp87
g19
(g20
(I0
tp88
g22
tp89
Rp90
(I1
(I1
I1
tp91
g26
(S'i8'
p92
I0
I1
tp93
Rp94
(I3
S'<'
p95
NNNI-1
I-1
I0
tp96
bI00
S'\x00\x00\x00\x00\x00\x00\x00\x00'
p97
tp98
bag19
(g20
(I0
tp99
g22
tp100
Rp101
(I1
(I1
I1
tp102
g94
I00
S'\x00\x00\x00\x00\x00\x00\x00\x00'
p103
tp104
bag19
(g20
(I0
tp105
g22
tp106
Rp107
(I1
(I1
I1
tp108
g94
I00
S'\x00\x00\x00\x00\x00\x00\x00\x00'
p109
tp110
bag19
(g20
(I0
tp111
g22
tp112
Rp113
(I1
(I1
I1
tp114
g94
I00
S'\x00\x00\x00\x00\x00\x00\x00\x00'
p115
tp116
bag19
(g20
(I0
tp117
g22
tp118
Rp119
(I1
(I1
I1
tp120
g94
I00
S'\x00\x00\x00\x00\x00\x00\x00\x00'
p121
tp122
bag19
(g20
(I0
tp123
g22
tp124
Rp125
(I1
(I1
I1
tp126
g94
I00
S'\x00\x00\x00\x00\x00\x00\x00\x00'
p127
tp128
bag19
(g20
(I0
tp129
g22
tp130
Rp131
(I1
(I1
I1
tp132
g94
I00
S'\x00\x00\x00\x00\x00\x00\x00\x00'
p133
tp134
bag19
(g20
(I0
tp135
g22
tp136
Rp137
(I1
(I1
I1
tp138
g94
I00
S'\x00\x00\x00\x00\x00\x00\x00\x00'
p139
tp140
bag19
(g20
(I0
tp141
g22
tp142
Rp143
(I1
(I1
I1
tp144
g94
I00
S'\x00\x00\x00\x00\x00\x00\x00\x00'
p145
tp146
bag19
(g20
(I0
tp147
g22
tp148
Rp149
(I1
(I1
I1
tp150
g94
I00
S'\x00\x00\x00\x00\x00\x00\x00\x00'
p151
tp152
bag19
(g20
(I0
tp153
g22
tp154
Rp155
(I1
(I1
I1
tp156
g94
I00
S'\x00\x00\x00\x00\x00\x00\x00\x00'
p157
tp158
bag19
(g20
(I0
tp159
g22
tp160
Rp161
(I1
(I1
I1
tp162
g94
I00
S'\x00\x00\x00\x00\x00\x00\x00\x00'
p163
tp164
bag19
(g20
(I0
tp165
g22
tp166
Rp167
(I1
(I1
I1
tp168
g94
I00
S'\x00\x00\x00\x00\x00\x00\x00\x00'
p169
tp170
bag19
(g20
(I0
tp171
g22
tp172
Rp173
(I1
(I1
I1
tp174
g94
I00
S'\x00\x00\x00\x00\x00\x00\x00\x00'
p175
tp176
bag19
(g20
(I0
tp177
g22
tp178
Rp179
(I1
(I1
I1
tp180
g94
I00
S'\x00\x00\x00\x00\x00\x00\x00\x00'
p181
tp182
bag19
(g20
(I0
tp183
g22
tp184
Rp185
(I1
(I1
I1
tp186
g94
I00
S'\x00\x00\x00\x00\x00\x00\x00\x00'
p187
tp188
bag19
(g20
(I0
tp189
g22
tp190
Rp191
(I1
(I1
I1
tp192
g94
I00
S'\x00\x00\x00\x00\x00\x00\x00\x00'
p193
tp194
bag19
(g20
(I0
tp195
g22
tp196
Rp197
(I1
(I1
I1
tp198
g94
I00
S'\x00\x00\x00\x00\x00\x00\x00\x00'
p199
tp200
bag19
(g20
(I0
tp201
g22
tp202
Rp203
(I1
(I1
I1
tp204
g94
I00
S'\x00\x00\x00\x00\x00\x00\x00\x00'
p205
tp206
bag19
(g20
(I0
tp207
g22
tp208
Rp209
(I1
(I1
I1
tp210
g94
I00
S'\x00\x00\x00\x00\x00\x00\x00\x00'
p211
tp212
bag19
(g20
(I0
tp213
g22
tp214
Rp215
(I1
(I1
I1
tp216
g94
I00
S'\x00\x00\x00\x00\x00\x00\x00\x00'
p217
tp218
bag19
(g20
(I0
tp219
g22
tp220
Rp221
(I1
(I1
I1
tp222
g94
I00
S'\x00\x00\x00\x00\x00\x00\x00\x00'
p223
tp224
bag19
(g20
(I0
tp225
g22
tp226
Rp227
(I1
(I1
I1
tp228
g94
I00
S'\x00\x00\x00\x00\x00\x00\x00\x00'
p229
tp230
bag19
(g20
(I0
tp231
g22
tp232
Rp233
(I1
(I1
I1
tp234
g94
I00
S'\x00\x00\x00\x00\x00\x00\x00\x00'
p235
tp236
bag19
(g20
(I0
tp237
g22
tp238
Rp239
(I1
(I1
I1
tp240
g94
I00
S'\x00\x00\x00\x00\x00\x00\x00\x00'
p241
tp242
bag19
(g20
(I0
tp243
g22
tp244
Rp245
(I1
(I1
I1
tp246
g94
I00
S'\x00\x00\x00\x00\x00\x00\x00\x00'
p247
tp248
bag19
(g20
(I0
tp249
g22
tp250
Rp251
(I1
(I1
I1
tp252
g94
I00
S'\x00\x00\x00\x00\x00\x00\x00\x00'
p253
tp254
bag19
(g20
(I0
tp255
g22
tp256
Rp257
(I1
(I1
I1
tp258
g94
I00
S'\x00\x00\x00\x00\x00\x00\x00\x00'
p259
tp260
bag19
(g20
(I0
tp261
g22
tp262
Rp263
(I1
(I1
I1
tp264
g94
I00
S'\x00\x00\x00\x00\x00\x00\x00\x00'
p265
tp266
bag19
(g20
(I0
tp267
g22
tp268
Rp269
(I1
(I1
I1
tp270
g94
I00
S'\x00\x00\x00\x00\x00\x00\x00\x00'
p271
tp272
bag19
(g20
(I0
tp273
g22
tp274
Rp275
(I1
(I1
I1
tp276
g94
I00
S'\x00\x00\x00\x00\x00\x00\x00\x00'
p277
tp278
bag19
(g20
(I0
tp279
g22
tp280
Rp281
(I1
(I1
I1
tp282
g94
I00
S'\x00\x00\x00\x00\x00\x00\x00\x00'
p283
tp284
bag19
(g20
(I0
tp285
g22
tp286
Rp287
(I1
(I1
I1
tp288
g94
I00
S'\x00\x00\x00\x00\x00\x00\x00\x00'
p289
tp290
bag19
(g20
(I0
tp291
g22
tp292
Rp293
(I1
(I1
I1
tp294
g94
I00
S'\x00\x00\x00\x00\x00\x00\x00\x00'
p295
tp296
bag19
(g20
(I0
tp297
g22
tp298
Rp299
(I1
(I1
I1
tp300
g94
I00
S'\x00\x00\x00\x00\x00\x00\x00\x00'
p301
tp302
bag19
(g20
(I0
tp303
g22
tp304
Rp305
(I1
(I1
I1
tp306
g94
I00
S'\x00\x00\x00\x00\x00\x00\x00\x00'
p307
tp308
bag19
(g20
(I0
tp309
g22
tp310
Rp311
(I1
(I1
I1
tp312
g94
I00
S'\x00\x00\x00\x00\x00\x00\x00\x00'
p313
tp314
bag19
(g20
(I0
tp315
g22
tp316
Rp317
(I1
(I1
I1
tp318
g94
I00
S'\x00\x00\x00\x00\x00\x00\x00\x00'
p319
tp320
bag19
(g20
(I0
tp321
g22
tp322
Rp323
(I1
(I1
I1
tp324
g94
I00
S'\x00\x00\x00\x00\x00\x00\x00\x00'
p325
tp326
bag19
(g20
(I0
tp327
g22
tp328
Rp329
(I1
(I1
I1
tp330
g94
I00
S'\x00\x00\x00\x00\x00\x00\x00\x00'
p331
tp332
bag19
(g20
(I0
tp333
g22
tp334
Rp335
(I1
(I1
I1
tp336
g94
I00
S'\x00\x00\x00\x00\x00\x00\x00\x00'
p337
tp338
bag19
(g20
(I0
tp339
g22
tp340
Rp341
(I1
(I1
I1
tp342
g94
I00
S'\x00\x00\x00\x00\x00\x00\x00\x00'
p343
tp344
bag19
(g20
(I0
tp345
g22
tp346
Rp347
(I1
(I1
I1
tp348
g94
I00
S'\x00\x00\x00\x00\x00\x00\x00\x00'
p349
tp350
ba(lp351
g15
(g16
(dp352
g18
g19
(g20
(I0
tp353
g22
tp354
Rp355
(I1
(I1
tp356
g29
I00
(lp357
g33
atp358
bsg77
Nstp359
Rp360
ag15
(g16
(dp361
g18
g19
(g20
(I0
tp362
g22
tp363
Rp364
(I1
(I1
tp365
g29
I00
(lp366
g34
atp367
bsg77
Nstp368
Rp369
ag15
(g16
(dp370
g18
g19
(g20
(I0
tp371
g22
tp372
Rp373
(I1
(I1
tp374
g29
I00
(lp375
g35
atp376
bsg77
Nstp377
Rp378
ag15
(g16
(dp379
g18
g19
(g20
(I0
tp380
g22
tp381
Rp382
(I1
(I1
tp383
g29
I00
(lp384
g36
atp385
bsg77
Nstp386
Rp387
ag15
(g16
(dp388
g18
g19
(g20
(I0
tp389
g22
tp390
Rp391
(I1
(I1
tp392
g29
I00
(lp393
g37
atp394
bsg77
Nstp395
Rp396
ag15
(g16
(dp397
g18
g19
(g20
(I0
tp398
g22
tp399
Rp400
(I1
(I1
tp401
g29
I00
(lp402
g38
atp403
bsg77
Nstp404
Rp405
ag15
(g16
(dp406
g18
g19
(g20
(I0
tp407
g22
tp408
Rp409
(I1
(I1
tp410
g29
I00
(lp411
g39
atp412
bsg77
Nstp413
Rp414
ag15
(g16
(dp415
g18
g19
(g20
(I0
tp416
g22
tp417
Rp418
(I1
(I1
tp419
g29
I00
(lp420
g40
atp421
bsg77
Nstp422
Rp423
ag15
(g16
(dp424
g18
g19
(g20
(I0
tp425
g22
tp426
Rp427
(I1
(I1
tp428
g29
I00
(lp429
g41
atp430
bsg77
Nstp431
Rp432
ag15
(g16
(dp433
g18
g19
(g20
(I0
tp434
g22
tp435
Rp436
(I1
(I1
tp437
g29
I00
(lp438
g42
atp439
bsg77
Nstp440
Rp441
ag15
(g16
(dp442
g18
g19
(g20
(I0
tp443
g22
tp444
Rp445
(I1
(I1
tp446
g29
I00
(lp447
g43
atp448
bsg77
Nstp449
Rp450
ag15
(g16
(dp451
g18
g19
(g20
(I0
tp452
g22
tp453
Rp454
(I1
(I1
tp455
g29
I00
(lp456
g44
atp457
bsg77
Nstp458
Rp459
ag15
(g16
(dp460
g18
g19
(g20
(I0
tp461
g22
tp462
Rp463
(I1
(I1
tp464
g29
I00
(lp465
g45
atp466
bsg77
Nstp467
Rp468
ag15
(g16
(dp469
g18
g19
(g20
(I0
tp470
g22
tp471
Rp472
(I1
(I1
tp473
g29
I00
(lp474
g46
atp475
bsg77
Nstp476
Rp477
ag15
(g16
(dp478
g18
g19
(g20
(I0
tp479
g22
tp480
Rp481
(I1
(I1
tp482
g29
I00
(lp483
g47
atp484
bsg77
Nstp485
Rp486
ag15
(g16
(dp487
g18
g19
(g20
(I0
tp488
g22
tp489
Rp490
(I1
(I1
tp491
g29
I00
(lp492
g48
atp493
bsg77
Nstp494
Rp495
ag15
(g16
(dp496
g18
g19
(g20
(I0
tp497
g22
tp498
Rp499
(I1
(I1
tp500
g29
I00
(lp501
g49
atp502
bsg77
Nstp503
Rp504
ag15
(g16
(dp505
g18
g19
(g20
(I0
tp506
g22
tp507
Rp508
(I1
(I1
tp509
g29
I00
(lp510
g50
atp511
bsg77
Nstp512
Rp513
ag15
(g16
(dp514
g18
g19
(g20
(I0
tp515
g22
tp516
Rp517
(I1
(I1
tp518
g29
I00
(lp519
g51
atp520
bsg77
Nstp521
Rp522
ag15
(g16
(dp523
g18
g19
(g20
(I0
tp524
g22
tp525
Rp526
(I1
(I1
tp527
g29
I00
(lp528
g52
atp529
bsg77
Nstp530
Rp531
ag15
(g16
(dp532
g18
g19
(g20
(I0
tp533
g22
tp534
Rp535
(I1
(I1
tp536
g29
I00
(lp537
g53
atp538
bsg77
Nstp539
Rp540
ag15
(g16
(dp541
g18
g19
(g20
(I0
tp542
g22
tp543
Rp544
(I1
(I1
tp545
g29
I00
(lp546
g54
atp547
bsg77
Nstp548
Rp549
ag15
(g16
(dp550
g18
g19
(g20
(I0
tp551
g22
tp552
Rp553
(I1
(I1
tp554
g29
I00
(lp555
g55
atp556
bsg77
Nstp557
Rp558
ag15
(g16
(dp559
g18
g19
(g20
(I0
tp560
g22
tp561
Rp562
(I1
(I1
tp563
g29
I00
(lp564
g56
atp565
bsg77
Nstp566
Rp567
ag15
(g16
(dp568
g18
g19
(g20
(I0
tp569
g22
tp570
Rp571
(I1
(I1
tp572
g29
I00
(lp573
g57
atp574
bsg77
Nstp575
Rp576
ag15
(g16
(dp577
g18
g19
(g20
(I0
tp578
g22
tp579
Rp580
(I1
(I1
tp581
g29
I00
(lp582
g58
atp583
bsg77
Nstp584
Rp585
ag15
(g16
(dp586
g18
g19
(g20
(I0
tp587
g22
tp588
Rp589
(I1
(I1
tp590
g29
I00
(lp591
g59
atp592
bsg77
Nstp593
Rp594
ag15
(g16
(dp595
g18
g19
(g20
(I0
tp596
g22
tp597
Rp598
(I1
(I1
tp599
g29
I00
(lp600
g60
atp601
bsg77
Nstp602
Rp603
ag15
(g16
(dp604
g18
g19
(g20
(I0
tp605
g22
tp606
Rp607
(I1
(I1
tp608
g29
I00
(lp609
g61
atp610
bsg77
Nstp611
Rp612
ag15
(g16
(dp613
g18
g19
(g20
(I0
tp614
g22
tp615
Rp616
(I1
(I1
tp617
g29
I00
(lp618
g62
atp619
bsg77
Nstp620
Rp621
ag15
(g16
(dp622
g18
g19
(g20
(I0
tp623
g22
tp624
Rp625
(I1
(I1
tp626
g29
I00
(lp627
g63
atp628
bsg77
Nstp629
Rp630
ag15
(g16
(dp631
g18
g19
(g20
(I0
tp632
g22
tp633
Rp634
(I1
(I1
tp635
g29
I00
(lp636
g64
atp637
bsg77
Nstp638
Rp639
ag15
(g16
(dp640
g18
g19
(g20
(I0
tp641
g22
tp642
Rp643
(I1
(I1
tp644
g29
I00
(lp645
g65
atp646
bsg77
Nstp647
Rp648
ag15
(g16
(dp649
g18
g19
(g20
(I0
tp650
g22
tp651
Rp652
(I1
(I1
tp653
g29
I00
(lp654
g66
atp655
bsg77
Nstp656
Rp657
ag15
(g16
(dp658
g18
g19
(g20
(I0
tp659
g22
tp660
Rp661
(I1
(I1
tp662
g29
I00
(lp663
g67
atp664
bsg77
Nstp665
Rp666
ag15
(g16
(dp667
g18
g19
(g20
(I0
tp668
g22
tp669
Rp670
(I1
(I1
tp671
g29
I00
(lp672
g68
atp673
bsg77
Nstp674
Rp675
ag15
(g16
(dp676
g18
g19
(g20
(I0
tp677
g22
tp678
Rp679
(I1
(I1
tp680
g29
I00
(lp681
g69
atp682
bsg77
Nstp683
Rp684
ag15
(g16
(dp685
g18
g19
(g20
(I0
tp686
g22
tp687
Rp688
(I1
(I1
tp689
g29
I00
(lp690
g70
atp691
bsg77
Nstp692
Rp693
ag15
(g16
(dp694
g18
g19
(g20
(I0
tp695
g22
tp696
Rp697
(I1
(I1
tp698
g29
I00
(lp699
g71
atp700
bsg77
Nstp701
Rp702
ag15
(g16
(dp703
g18
g19
(g20
(I0
tp704
g22
tp705
Rp706
(I1
(I1
tp707
g29
I00
(lp708
g72
atp709
bsg77
Nstp710
Rp711
ag15
(g16
(dp712
g18
g19
(g20
(I0
tp713
g22
tp714
Rp715
(I1
(I1
tp716
g29
I00
(lp717
g73
atp718
bsg77
Nstp719
Rp720
ag15
(g16
(dp721
g18
g19
(g20
(I0
tp722
g22
tp723
Rp724
(I1
(I1
tp725
g29
I00
(lp726
g74
atp727
bsg77
Nstp728
Rp729
ag15
(g16
(dp730
g18
g19
(g20
(I0
tp731
g22
tp732
Rp733
(I1
(I1
tp734
g29
I00
(lp735
g75
atp736
bsg77
Nstp737
Rp738
a(dp739
S'0.14.1'
p740
(dp741
S'axes'
p742
g14
sS'blocks'
p743
(lp744
(dp745
S'mgr_locs'
p746
c__builtin__
slice
p747
(I0
I1
I1
tp748
Rp749
sS'values'
p750
g90
sa(dp751
g746
g747
(I1
I2
I1
tp752
Rp753
sg750
g101
sa(dp754
g746
g747
(I2
I3
I1
tp755
Rp756
sg750
g107
sa(dp757
g746
g747
(I3
I4
I1
tp758
Rp759
sg750
g113
sa(dp760
g746
g747
(I4
I5
I1
tp761
Rp762
sg750
g119
sa(dp763
g746
g747
(I5
I6
I1
tp764
Rp765
sg750
g125
sa(dp766
g746
g747
(I6
I7
I1
tp767
Rp768
sg750
g131
sa(dp769
g746
g747
(I7
I8
I1
tp770
Rp771
sg750
g137
sa(dp772
g746
g747
(I8
I9
I1
tp773
Rp774
sg750
g143
sa(dp775
g746
g747
(I9
I10
I1
tp776
Rp777
sg750
g149
sa(dp778
g746
g747
(I10
I11
I1
tp779
Rp780
sg750
g155
sa(dp781
g746
g747
(I11
I12
I1
tp782
Rp783
sg750
g161
sa(dp784
g746
g747
(I12
I13
I1
tp785
Rp786
sg750
g167
sa(dp787
g746
g747
(I13
I14
I1
tp788
Rp789
sg750
g173
sa(dp790
g746
g747
(I14
I15
I1
tp791
Rp792
sg750
g179
sa(dp793
g746
g747
(I15
I16
I1
tp794
Rp795
sg750
g185
sa(dp796
g746
g747
(I16
I17
I1
tp797
Rp798
sg750
g191
sa(dp799
g746
g747
(I17
I18
I1
tp800
Rp801
sg750
g197
sa(dp802
g746
g747
(I18
I19
I1
tp803
Rp804
sg750
g203
sa(dp805
g746
g747
(I19
I20
I1
tp806
Rp807
sg750
g209
sa(dp808
g746
g747
(I20
I21
I1
tp809
Rp810
sg750
g215
sa(dp811
g746
g747
(I21
I22
I1
tp812
Rp813
sg750
g221
sa(dp814
g746
g747
(I22
I23
I1
tp815
Rp816
sg750
g227
sa(dp817
g746
g747
(I23
I24
I1
tp818
Rp819
sg750
g233
sa(dp820
g746
g747
(I24
I25
I1
tp821
Rp822
sg750
g239
sa(dp823
g746
g747
(I25
I26
I1
tp824
Rp825
sg750
g245
sa(dp826
g746
g747
(I26
I27
I1
tp827
Rp828
sg750
g251
sa(dp829
g746
g747
(I27
I28
I1
tp830
Rp831
sg750
g257
sa(dp832
g746
g747
(I28
I29
I1
tp833
Rp834
sg750
g263
sa(dp835
g746
g747
(I29
I30
I1
tp836
Rp837
sg750
g269
sa(dp838
g746
g747
(I30
I31
I1
tp839
Rp840
sg750
g275
sa(dp841
g746
g747
(I31
I32
I1
tp842
Rp843
sg750
g281
sa(dp844
g746
g747
(I32
I33
I1
tp845
Rp846
sg750
g287
sa(dp847
g746
g747
(I33
I34
I1
tp848
Rp849
sg750
g293
sa(dp850
g746
g747
(I34
I35
I1
tp851
Rp852
sg750
g299
sa(dp853
g746
g747
(I35
I36
I1
tp854
Rp855
sg750
g305
sa(dp856
g746
g747
(I36
I37
I1
tp857
Rp858
sg750
g311
sa(dp859
g746
g747
(I37
I38
I1
tp860
Rp861
sg750
g317
sa(dp862
g746
g747
(I38
I39
I1
tp863
Rp864
sg750
g323
sa(dp865
g746
g747
(I39
I40
I1
tp866
Rp867
sg750
g329
sa(dp868
g746
g747
(I40
I41
I1
tp869
Rp870
sg750
g335
sa(dp871
g746
g747
(I41
I42
I1
tp872
Rp873
sg750
g341
sa(dp874
g746
g747
(I42
I43
I1
tp875
Rp876
sg750
g347
sasstp877
bsb.